; Function Attrs: mustprogress uwtable
define dso_local void @_ZN5vcpkg20get_builtin_baselineB5cxx11ERKNS_10VcpkgPathsE(ptr dead_on_unwind noalias writable sret(%"struct.vcpkg::ExpectedT.77") align 8 %0, ptr noundef nonnull align 8 dereferenceable(400) %1) local_unnamed_addr #2 personality ptr @__gxx_personality_v0 {
  %3 = alloca %"struct.vcpkg::Path", align 8
  %4 = tail call noundef nonnull align 8 dereferenceable(8) ptr @_ZNK5vcpkg10VcpkgPaths14get_filesystemEv(ptr noundef nonnull align 8 dereferenceable(400) %1)
  %5 = getelementptr inbounds i8, ptr %1, i64 96
  call void @_ZNKR5vcpkg4PathdvENS_10StringViewE(ptr dead_on_unwind nonnull writable sret(%"struct.vcpkg::Path") align 8 %3, ptr noundef nonnull align 8 dereferenceable(32) %5, ptr nonnull @.str.44, i64 13)
  invoke fastcc void @_ZN12_GLOBAL__N_122load_baseline_versionsB5cxx11ERKN5vcpkg18ReadOnlyFilesystemERKNS0_4PathENS0_10StringViewE(ptr dead_on_unwind noalias writable align 8 %0, ptr noundef nonnull align 8 dereferenceable(8) %4, ptr noundef nonnull align 8 dereferenceable(32) %3, ptr null, i64 0)
          to label %6 unwind label %7

6:                                                ; preds = %2
  call void @_ZNSt7__cxx1112basic_stringIcSt11char_traitsIcESaIcEED1Ev(ptr noundef nonnull align 8 dereferenceable(32) %3) #26
  ret void

7:                                                ; preds = %2
  %8 = landingpad { ptr, i32 }
          cleanup
  call void @_ZNSt7__cxx1112basic_stringIcSt11char_traitsIcESaIcEED1Ev(ptr noundef nonnull align 8 dereferenceable(32) %3) #26
  resume { ptr, i32 } %8
}